target datalayout = "e-m:e-p270:32:32-p271:32:32-p272:64:64-i64:64-i128:128-f80:128-n8:16:32:64-S128"
target triple = "x86_64-pc-linux-gnu"

%struct._asn1_ctx_t = type { i32, i32, i8, ptr, ptr, ptr, ptr, ptr, %struct.anon, %struct.anon.2, %struct.anon.3, ptr }
%struct.anon = type { i32, i8, i8, i8, ptr, ptr, i32, i32, ptr, ptr, ptr, %union.anon }
%union.anon = type { %struct.anon.0 }
%struct.anon.0 = type { ptr }
%struct.anon.2 = type { ptr, ptr, ptr }
%struct.anon.3 = type { i32, i8, ptr, i32, i32, ptr, ptr, ptr, %union.anon.4 }
%union.anon.4 = type { %struct.anon.5 }
%struct.anon.5 = type { ptr }
%struct._packet_info = type { ptr, ptr, i32, i32, %struct.nstime_t, %struct.nstime_t, %struct.nstime_t, i32, ptr, ptr, ptr, ptr, %struct._address, %struct._address, %struct._address, %struct._address, %struct._address, %struct._address, i32, ptr, i32, %struct.anon.7, i32, i32, i32, i32, ptr, i32, ptr, ptr, i16, i16, i32, i32, i16, i32, i32, ptr, ptr, ptr, i8, i8, i16, i16, i16, i32, i16, i16, ptr, ptr, ptr, ptr, ptr, i32 }
%struct.nstime_t = type { i64, i32 }
%struct._address = type { i32, i32, ptr, ptr }
%struct.anon.7 = type { i8, [3 x i8] }
%struct._asn1_stack_frame_t = type { ptr, ptr, ptr }

; Function Attrs: nounwind uwtable
define hidden void @asn1_stack_frame_push(ptr noundef %0, ptr noundef %1) #0 {
  %3 = alloca ptr, align 8
  %4 = alloca ptr, align 8
  %5 = alloca ptr, align 8
  store ptr %0, ptr %3, align 8
  store ptr %1, ptr %4, align 8
  %6 = load ptr, ptr %3, align 8
  %7 = getelementptr inbounds %struct._asn1_ctx_t, ptr %6, i32 0, i32 3
  %8 = load ptr, ptr %7, align 8
  %9 = getelementptr inbounds %struct._packet_info, ptr %8, i32 0, i32 50
  %10 = load ptr, ptr %9, align 8
  %11 = call noalias ptr @wmem_alloc0(ptr noundef %10, i64 noundef 24)
  store ptr %11, ptr %5, align 8
  %12 = load ptr, ptr %4, align 8
  %13 = load ptr, ptr %5, align 8
  %14 = getelementptr inbounds %struct._asn1_stack_frame_t, ptr %13, i32 0, i32 0
  store ptr %12, ptr %14, align 8
  %15 = load ptr, ptr %3, align 8
  %16 = getelementptr inbounds %struct._asn1_ctx_t, ptr %15, i32 0, i32 5
  %17 = load ptr, ptr %16, align 8
  %18 = load ptr, ptr %5, align 8
  %19 = getelementptr inbounds %struct._asn1_stack_frame_t, ptr %18, i32 0, i32 2
  store ptr %17, ptr %19, align 8
  %20 = load ptr, ptr %5, align 8
  %21 = load ptr, ptr %3, align 8
  %22 = getelementptr inbounds %struct._asn1_ctx_t, ptr %21, i32 0, i32 5
  store ptr %20, ptr %22, align 8
  ret void
}