; Function Attrs: nounwind uwtable
define hidden void @asn1_stack_frame_push(ptr noundef captures(none) %0, ptr noundef %1) local_unnamed_addr #3 {
  %3 = getelementptr inbounds nuw i8, ptr %0, i64 16
  %4 = load ptr, ptr %3, align 8
  %5 = getelementptr inbounds nuw i8, ptr %4, i64 408
  %6 = load ptr, ptr %5, align 8
  %7 = tail call noalias ptr @wmem_alloc0(ptr noundef %6, i64 noundef 24) #10
  store ptr %1, ptr %7, align 8
  %8 = getelementptr inbounds nuw i8, ptr %0, i64 32
  %9 = load ptr, ptr %8, align 8
  %10 = getelementptr inbounds nuw i8, ptr %7, i64 16
  store ptr %9, ptr %10, align 8
  store ptr %7, ptr %8, align 8
  ret void
}